(lp1
ccopy_reg
_reconstructor
p2
(c__main__
Critter
p3
c__builtin__
object
p4
NtRp5
(dp6
S'age'
p7
I65
sS'name'
p8
S'Darth Vader'
p9
sbag2
(g3
g4
NtRp10
(dp11
g7
I43
sg8
S"Knight who says 'Nii'"
p12
sba.